Certificate:
    Data:
        Version: 3 (0x2)
        Serial Number: 0 (0x0)
        Signature Algorithm: sha256WithRSAEncryption
        Issuer: O=Apache Software Foundation, OU=HttpComponents Project, CN=Test CA/emailAddress=dev@hc.apache.org
        Validity
            Not Before: Oct 20 11:31:00 2024 GMT
            Not After : Sep 26 11:31:00 2124 GMT
        Subject: O=Apache Software Foundation, OU=HttpComponents Project, CN=localhost/emailAddress=dev@hc.apache.org
        Subject Public Key Info:
            Public Key Algorithm: rsaEncryption
                Public-Key: (2048 bit)
                Modulus:
                    00:9a:cf:ff:49:86:9e:3a:0b:0c:2f:4f:89:10:86:
                    11:30:da:81:8c:9e:26:f7:72:9f:c7:d0:8e:16:67:
                    be:0a:46:ee:d2:9f:67:89:37:b8:38:84:16:d8:66:
                    c1:c8:9a:9f:64:c6:06:8c:57:fe:0d:83:58:4d:3d:
                    f3:d5:35:a7:89:e3:5e:1b:c8:48:b5:66:34:38:ec:
                    9f:ac:1a:05:81:66:0f:d4:9f:af:a9:0c:bf:20:51:
                    e5:1c:21:63:a5:95:39:86:b0:d6:eb:9d:9a:29:be:
                    83:df:ef:6b:08:e4:e3:2e:a3:1e:49:4c:b1:2a:f7:
                    89:49:45:4c:57:c0:47:63:49:5f:85:86:72:d7:06:
                    d1:e6:10:16:ab:60:a3:09:7d:9b:39:e4:13:4b:68:
                    8e:c3:33:a0:50:ce:45:41:50:f6:38:d8:3e:89:e8:
                    cf:cd:15:24:3f:ea:37:a5:72:37:f8:7b:60:ce:d9:
                    6b:e1:ef:bc:92:13:48:7a:97:c8:48:87:62:4b:7c:
                    0e:6f:bf:a5:b7:47:78:2a:5d:74:92:5c:3a:40:8a:
                    f2:e2:d8:35:54:b2:13:1f:d7:c8:0b:c8:d9:89:56:
                    bd:72:d0:84:14:c8:b6:79:b8:22:b7:d0:20:9a:ef:
                    59:0d:ca:0c:99:ad:27:da:3f:c8:f5:02:3b:e2:5f:
                    98:6d
                Exponent: 65537 (0x10001)
        X509v3 extensions:
            X509v3 Basic Constraints: 
                CA:FALSE
            Netscape Comment: 
                OpenSSL Generated Certificate
            X509v3 Subject Key Identifier: 
                F5:D3:EA:60:F9:5C:9E:DD:82:9D:DF:E4:71:43:A6:35:84:4D:07:46
            X509v3 Authority Key Identifier: 
                03:E4:E7:DA:0F:64:DB:13:1E:BD:85:AB:76:BC:29:CA:2F:A7:C7:4B
    Signature Algorithm: sha256WithRSAEncryption
    Signature Value:
        97:67:38:35:c2:da:ab:2b:22:5f:29:0a:cc:b3:a0:3c:a0:a5:
        5c:a3:75:ef:48:65:b5:45:3f:14:11:7b:95:09:78:e4:9a:b1:
        db:10:23:33:7f:c8:37:89:1f:e4:be:51:48:8c:d4:1d:6b:25:
        fd:ed:30:24:eb:20:f7:84:c4:49:d1:81:6d:f4:f5:54:71:ac:
        a0:40:b1:c1:05:3a:fb:cb:79:5a:ee:ce:00:20:7c:31:f1:9a:
        16:1a:11:19:79:dd:49:8a:1b:91:e9:30:4f:33:72:2e:ee:71:
        5e:53:4a:59:9f:80:4b:cf:6a:da:c8:98:20:55:a1:45:c2:cc:
        86:05:45:49:df:72:48:54:88:02:91:aa:1b:e3:ed:b6:29:30:
        a7:d3:46:d6:ab:58:c2:e5:1e:e6:8d:67:c0:2b:54:46:75:97:
        f0:5a:f8:c2:04:8f:ce:31:50:28:de:37:dc:c6:8d:6b:24:f8:
        fa:6c:ae:d9:bd:fc:87:22:dd:cc:c9:a0:c2:20:5f:13:ca:f8:
        32:96:66:14:1d:81:b7:36:4a:36:09:46:83:3d:80:07:9f:8b:
        64:e4:5c:42:93:55:c1:ea:f9:65:6d:10:b5:33:ee:90:27:11:
        3a:30:14:bf:a8:c8:ca:f0:fe:22:1b:b1:f0:76:b0:a4:32:3c:
        4a:52:af:1c
-----BEGIN CERTIFICATE-----
MIID7jCCAtagAwIBAgIBADANBgkqhkiG9w0BAQsFADB6MSMwIQYDVQQKDBpBcGFj
aGUgU29mdHdhcmUgRm91bmRhdGlvbjEfMB0GA1UECwwWSHR0cENvbXBvbmVudHMg
UHJvamVjdDEQMA4GA1UEAwwHVGVzdCBDQTEgMB4GCSqGSIb3DQEJARYRZGV2QGhj
LmFwYWNoZS5vcmcwIBcNMjQxMDIwMTEzMTAwWhgPMjEyNDA5MjYxMTMxMDBaMHwx
IzAhBgNVBAoMGkFwYWNoZSBTb2Z0d2FyZSBGb3VuZGF0aW9uMR8wHQYDVQQLDBZI
dHRwQ29tcG9uZW50cyBQcm9qZWN0MRIwEAYDVQQDDAlsb2NhbGhvc3QxIDAeBgkq
hkiG9w0BCQEWEWRldkBoYy5hcGFjaGUub3JnMIIBIjANBgkqhkiG9w0BAQEFAAOC
AQ8AMIIBCgKCAQEAms//SYaeOgsML0+JEIYRMNqBjJ4m93Kfx9COFme+Ckbu0p9n
iTe4OIQW2GbByJqfZMYGjFf+DYNYTT3z1TWnieNeG8hItWY0OOyfrBoFgWYP1J+v
qQy/IFHlHCFjpZU5hrDW652aKb6D3+9rCOTjLqMeSUyxKveJSUVMV8BHY0lfhYZy
1wbR5hAWq2CjCX2bOeQTS2iOwzOgUM5FQVD2ONg+iejPzRUkP+o3pXI3+Htgztlr
4e+8khNIepfISIdiS3wOb7+lt0d4Kl10klw6QIry4tg1VLITH9fIC8jZiVa9ctCE
FMi2ebgit9Agmu9ZDcoMma0n2j/I9QI74l+YbQIDAQABo3sweTAJBgNVHRMEAjAA
MCwGCWCGSAGG+EIBDQQfFh1PcGVuU1NMIEdlbmVyYXRlZCBDZXJ0aWZpY2F0ZTAd
BgNVHQ4EFgQU9dPqYPlcnt2Cnd/kcUOmNYRNB0YwHwYDVR0jBBgwFoAUA+Tn2g9k
2xMevYWrdrwpyi+nx0swDQYJKoZIhvcNAQELBQADggEBAJdnODXC2qsrIl8pCsyz
oDygpVyjde9IZbVFPxQRe5UJeOSasdsQIzN/yDeJH+S+UUiM1B1rJf3tMCTrIPeE
xEnRgW309VRxrKBAscEFOvvLeVruzgAgfDHxmhYaERl53UmKG5HpME8zci7ucV5T
SlmfgEvPatrImCBVoUXCzIYFRUnfckhUiAKRqhvj7bYpMKfTRtarWMLlHuaNZ8Ar
VEZ1l/Ba+MIEj84xUCjeN9zGjWsk+Ppsrtm9/Ici3czJoMIgXxPK+DKWZhQdgbc2
SjYJRoM9gAefi2TkXEKTVcHq+WVtELUz7pAnETowFL+oyMrw/iIbsfB2sKQyPEpS
rxw=
-----END CERTIFICATE-----
